; Function Attrs: mustprogress nounwind uwtable
define dso_local void @_ZN22cmWhileFunctionBlockerD2Ev(ptr noundef nonnull align 8 dereferenceable(184) %0) unnamed_addr #4 align 2 personality ptr @__gxx_personality_v0 {
  store ptr getelementptr inbounds ({ [9 x ptr] }, ptr @_ZTV22cmWhileFunctionBlocker, i64 0, i32 0, i64 2), ptr %0, align 8
  %2 = getelementptr inbounds i8, ptr %0, i64 152
  %3 = load ptr, ptr %2, align 8
  invoke void @_ZN10cmMakefile12PopLoopBlockEv(ptr noundef nonnull align 8 dereferenceable(3520) %3)
          to label %4 unwind label %12

4:                                                ; preds = %1
  %5 = getelementptr inbounds i8, ptr %0, i64 160
  %6 = load ptr, ptr %5, align 8
  %7 = getelementptr inbounds i8, ptr %0, i64 168
  %8 = load ptr, ptr %7, align 8
  %.not4.i.i.i.i = icmp eq ptr %6, %8
  br i1 %.not4.i.i.i.i, label %_ZSt8_DestroyIP18cmListFileArgumentS0_EvT_S2_RSaIT0_E.exit.i, label %.lr.ph.i.i.i.i

.lr.ph.i.i.i.i:                                   ; preds = %4, %.lr.ph.i.i.i.i
  %.05.i.i.i.i = phi ptr [ %9, %.lr.ph.i.i.i.i ], [ %6, %4 ]
  tail call void @_ZNSt7__cxx1112basic_stringIcSt11char_traitsIcESaIcEED1Ev(ptr noundef nonnull align 8 dereferenceable(32) %.05.i.i.i.i) #16
  %9 = getelementptr inbounds i8, ptr %.05.i.i.i.i, i64 48
  %.not.i.i.i.i = icmp eq ptr %9, %8
  br i1 %.not.i.i.i.i, label %_ZSt8_DestroyIP18cmListFileArgumentS0_EvT_S2_RSaIT0_E.exitthread-pre-split.i, label %.lr.ph.i.i.i.i, !llvm.loop !5

_ZSt8_DestroyIP18cmListFileArgumentS0_EvT_S2_RSaIT0_E.exitthread-pre-split.i: ; preds = %.lr.ph.i.i.i.i
  %.pr.i = load ptr, ptr %5, align 8
  br label %_ZSt8_DestroyIP18cmListFileArgumentS0_EvT_S2_RSaIT0_E.exit.i

_ZSt8_DestroyIP18cmListFileArgumentS0_EvT_S2_RSaIT0_E.exit.i: ; preds = %_ZSt8_DestroyIP18cmListFileArgumentS0_EvT_S2_RSaIT0_E.exitthread-pre-split.i, %4
  %10 = phi ptr [ %.pr.i, %_ZSt8_DestroyIP18cmListFileArgumentS0_EvT_S2_RSaIT0_E.exitthread-pre-split.i ], [ %6, %4 ]
  %.not.i.i.i = icmp eq ptr %10, null
  br i1 %.not.i.i.i, label %_ZNSt6vectorI18cmListFileArgumentSaIS0_EED2Ev.exit, label %11

11:                                               ; preds = %_ZSt8_DestroyIP18cmListFileArgumentS0_EvT_S2_RSaIT0_E.exit.i
  tail call void @_ZdlPv(ptr noundef nonnull %10) #17
  br label %_ZNSt6vectorI18cmListFileArgumentSaIS0_EED2Ev.exit

_ZNSt6vectorI18cmListFileArgumentSaIS0_EED2Ev.exit: ; preds = %_ZSt8_DestroyIP18cmListFileArgumentS0_EvT_S2_RSaIT0_E.exit.i, %11
  tail call void @_ZN17cmFunctionBlockerD2Ev(ptr noundef nonnull align 8 dereferenceable(148) %0) #16
  ret void

12:                                               ; preds = %1
  %13 = landingpad { ptr, i32 }
          catch ptr null
  %14 = extractvalue { ptr, i32 } %13, 0
  tail call void @__clang_call_terminate(ptr %14) #18
  unreachable
}